	.file	"main.cpp"
	.text
.Ltext0:
	.local	_ZStL8__ioinit
	.comm	_ZStL8__ioinit,1,1
	.section	.rodata
.LC0:
	.string	"1 + 1 = "
	.text
	.globl	main
	.type	main, @function
main:
.LFB1729:
	.file 1 "src/main.cpp"
	.loc 1 6 1
	.cfi_startproc
	pushq	%rbp
	.cfi_def_cfa_offset 16
	.cfi_offset 6, -16
	movq	%rsp, %rbp
	.cfi_def_cfa_register 6
	pushq	%rbx
	subq	$8, %rsp
	.cfi_offset 3, -24
	.loc 1 7 18
	leaq	.LC0(%rip), %rax
	movq	%rax, %rsi
	leaq	_ZSt4cout(%rip), %rax
	movq	%rax, %rdi
	call	_ZStlsISt11char_traitsIcEERSt13basic_ostreamIcT_ES5_PKc@PLT
	movq	%rax, %rbx
	.loc 1 7 40
	movl	$1, %esi
	movl	$1, %edi
	call	_Z3addii@PLT
	movl	%eax, %esi
	movq	%rbx, %rdi
	call	_ZNSolsEi@PLT
	.loc 1 7 50
	movq	_ZSt4endlIcSt11char_traitsIcEERSt13basic_ostreamIT_T0_ES6_@GOTPCREL(%rip), %rdx
	movq	%rdx, %rsi
	movq	%rax, %rdi
	call	_ZNSolsEPFRSoS_E@PLT
	.loc 1 8 12
	movl	$0, %eax
	.loc 1 9 1
	movq	-8(%rbp), %rbx
	leave
	.cfi_def_cfa 7, 8
	ret
	.cfi_endproc
.LFE1729:
	.size	main, .-main
	.type	_Z41__static_initialization_and_destruction_0ii, @function
_Z41__static_initialization_and_destruction_0ii:
.LFB2232:
	.loc 1 9 1
	.cfi_startproc
	pushq	%rbp
	.cfi_def_cfa_offset 16
	.cfi_offset 6, -16
	movq	%rsp, %rbp
	.cfi_def_cfa_register 6
	subq	$16, %rsp
	movl	%edi, -4(%rbp)
	movl	%esi, -8(%rbp)
	.loc 1 9 1
	cmpl	$1, -4(%rbp)
	jne	.L5
	.loc 1 9 1 is_stmt 0 discriminator 1
	cmpl	$65535, -8(%rbp)
	jne	.L5
	.file 2 "/usr/include/c++/11.1.0/iostream"
	.loc 2 74 25 is_stmt 1
	leaq	_ZStL8__ioinit(%rip), %rax
	movq	%rax, %rdi
	call	_ZNSt8ios_base4InitC1Ev@PLT
	leaq	__dso_handle(%rip), %rax
	movq	%rax, %rdx
	leaq	_ZStL8__ioinit(%rip), %rax
	movq	%rax, %rsi
	movq	_ZNSt8ios_base4InitD1Ev@GOTPCREL(%rip), %rax
	movq	%rax, %rdi
	call	__cxa_atexit@PLT
.L5:
	.loc 1 9 1
	nop
	leave
	.cfi_def_cfa 7, 8
	ret
	.cfi_endproc
.LFE2232:
	.size	_Z41__static_initialization_and_destruction_0ii, .-_Z41__static_initialization_and_destruction_0ii
	.type	_GLOBAL__sub_I_main, @function
_GLOBAL__sub_I_main:
.LFB2233:
	.loc 1 9 1
	.cfi_startproc
	pushq	%rbp
	.cfi_def_cfa_offset 16
	.cfi_offset 6, -16
	movq	%rsp, %rbp
	.cfi_def_cfa_register 6
	.loc 1 9 1
	movl	$65535, %esi
	movl	$1, %edi
	call	_Z41__static_initialization_and_destruction_0ii
	popq	%rbp
	.cfi_def_cfa 7, 8
	ret
	.cfi_endproc
.LFE2233:
	.size	_GLOBAL__sub_I_main, .-_GLOBAL__sub_I_main
	.section	.init_array,"aw"
	.align 8
	.quad	_GLOBAL__sub_I_main
	.text
.Letext0:
	.file 3 "<built-in>"
	.file 4 "/usr/lib/gcc/x86_64-pc-linux-gnu/11.1.0/include/stddef.h"
	.file 5 "/usr/include/bits/types/wint_t.h"
	.file 6 "/usr/include/bits/types/__mbstate_t.h"
	.file 7 "/usr/include/bits/types/mbstate_t.h"
	.file 8 "/usr/include/bits/types/__FILE.h"
	.file 9 "/usr/include/bits/types/struct_FILE.h"
	.file 10 "/usr/include/bits/types/FILE.h"
	.file 11 "/usr/include/c++/11.1.0/cwchar"
	.file 12 "/usr/include/c++/11.1.0/bits/exception_ptr.h"
	.file 13 "/usr/include/c++/11.1.0/x86_64-pc-linux-gnu/bits/c++config.h"
	.file 14 "/usr/include/c++/11.1.0/type_traits"
	.file 15 "/usr/include/c++/11.1.0/debug/debug.h"
	.file 16 "/usr/include/c++/11.1.0/bits/char_traits.h"
	.file 17 "/usr/include/c++/11.1.0/cstdint"
	.file 18 "/usr/include/c++/11.1.0/clocale"
	.file 19 "/usr/include/c++/11.1.0/cstdlib"
	.file 20 "/usr/include/c++/11.1.0/cstdio"
	.file 21 "/usr/include/c++/11.1.0/bits/ios_base.h"
	.file 22 "/usr/include/c++/11.1.0/cwctype"
	.file 23 "/usr/include/c++/11.1.0/bits/ostream.tcc"
	.file 24 "/usr/include/c++/11.1.0/ostream"
	.file 25 "/usr/include/c++/11.1.0/iosfwd"
	.file 26 "/usr/include/wchar.h"
	.file 27 "/usr/include/bits/types/struct_tm.h"
	.file 28 "/usr/include/c++/11.1.0/bits/predefined_ops.h"
	.file 29 "/usr/include/bits/types.h"
	.file 30 "/usr/include/bits/stdint-intn.h"
	.file 31 "/usr/include/bits/stdint-uintn.h"
	.file 32 "/usr/include/stdint.h"
	.file 33 "/usr/include/locale.h"
	.file 34 "/usr/include/stdlib.h"
	.file 35 "/usr/include/bits/types/__fpos_t.h"
	.file 36 "/usr/include/stdio.h"
	.file 37 "/usr/include/bits/wctype-wchar.h"
	.file 38 "/usr/include/wctype.h"
	.file 39 "include/other.h"
	.file 40 "/usr/include/c++/11.1.0/system_error"
	.section	.note.GNU-stack,"",@progbits
